; Function Attrs: nofree norecurse nosync nounwind memory(readwrite, inaccessiblemem: none) uwtable
define void @Abc_ObjPatchFanoutFanin(ptr noundef readonly captures(none) %0, i32 noundef %1) local_unnamed_addr #4 {
  %3 = getelementptr i8, ptr %0, i64 44
  %.val1725 = load i32, ptr %3, align 4
  %4 = icmp sgt i32 %.val1725, 0
  br i1 %4, label %.lr.ph27, label %.critedge

.lr.ph27:                                         ; preds = %2
  %5 = getelementptr i8, ptr %0, i64 48
  %6 = getelementptr i8, ptr %0, i64 16
  br label %7

7:                                                ; preds = %.lr.ph27, %.critedge2
  %.val1733 = phi i32 [ %.val1725, %.lr.ph27 ], [ %.val17, %.critedge2 ]
  %indvars.iv30 = phi i64 [ 0, %.lr.ph27 ], [ %indvars.iv.next31, %.critedge2 ]
  %.val18 = load ptr, ptr %0, align 8
  %.val19 = load ptr, ptr %5, align 8
  %8 = getelementptr i8, ptr %.val18, i64 32
  %.val18.val = load ptr, ptr %8, align 8
  %9 = getelementptr i8, ptr %.val18.val, i64 8
  %.val18.val.val = load ptr, ptr %9, align 8
  %10 = getelementptr inbounds nuw i32, ptr %.val19, i64 %indvars.iv30
  %11 = load i32, ptr %10, align 4
  %12 = sext i32 %11 to i64
  %13 = getelementptr inbounds ptr, ptr %.val18.val.val, i64 %12
  %14 = load ptr, ptr %13, align 8
  %15 = getelementptr i8, ptr %14, i64 28
  %.val20 = load i32, ptr %15, align 4
  %16 = icmp sgt i32 %.val20, 0
  br i1 %16, label %.lr.ph, label %.critedge2

.lr.ph:                                           ; preds = %7
  %17 = getelementptr i8, ptr %14, i64 32
  %.val21 = load ptr, ptr %17, align 8
  %.val22 = load i32, ptr %6, align 8
  %wide.trip.count = zext nneg i32 %.val20 to i64
  br label %19

18:                                               ; preds = %19
  %indvars.iv.next = add nuw nsw i64 %indvars.iv, 1
  %exitcond.not = icmp eq i64 %indvars.iv.next, %wide.trip.count
  br i1 %exitcond.not, label %.critedge2, label %19, !llvm.loop !10

19:                                               ; preds = %.lr.ph, %18
  %indvars.iv = phi i64 [ 0, %.lr.ph ], [ %indvars.iv.next, %18 ]
  %20 = getelementptr inbounds nuw i32, ptr %.val21, i64 %indvars.iv
  %21 = load i32, ptr %20, align 4
  %22 = icmp eq i32 %21, %.val22
  br i1 %22, label %23, label %18

23:                                               ; preds = %19
  %24 = getelementptr inbounds nuw i32, ptr %.val21, i64 %indvars.iv
  store i32 %1, ptr %24, align 4
  %.val17.pre = load i32, ptr %3, align 4
  br label %.critedge2

.critedge2:                                       ; preds = %18, %7, %23
  %.val17 = phi i32 [ %.val1733, %7 ], [ %.val17.pre, %23 ], [ %.val1733, %18 ]
  %indvars.iv.next31 = add nuw nsw i64 %indvars.iv30, 1
  %25 = sext i32 %.val17 to i64
  %26 = icmp slt i64 %indvars.iv.next31, %25
  br i1 %26, label %7, label %.critedge, !llvm.loop !11

.critedge:                                        ; preds = %.critedge2, %2
  ret void
}